target datalayout = "e-m:e-p270:32:32-p271:32:32-p272:64:64-i64:64-i128:128-f80:128-n8:16:32:64-S128"
target triple = "x86_64-pc-linux-gnu"

%"struct.duckdb::StringDictionaryContainer" = type { i32, i32 }
%"class.duckdb::BufferHandle" = type { %"class.duckdb::shared_ptr", %"class.duckdb::optional_ptr" }
%"class.duckdb::shared_ptr" = type { %"class.std::shared_ptr" }
%"class.std::shared_ptr" = type { %"class.std::__shared_ptr" }
%"class.std::__shared_ptr" = type { ptr, %"class.std::__shared_count" }
%"class.std::__shared_count" = type { ptr }
%"class.duckdb::optional_ptr" = type { ptr }
%"class.duckdb::SegmentBase" = type { i64, %"struct.std::atomic", %"struct.std::atomic.0", i64 }
%"struct.std::atomic" = type { %"struct.std::__atomic_base" }
%"struct.std::__atomic_base" = type { i64 }
%"struct.std::atomic.0" = type { %"struct.std::__atomic_base.1" }
%"struct.std::__atomic_base.1" = type { ptr }
%"struct.duckdb::CompressionState" = type { ptr, %"class.duckdb::CompressionInfo" }
%"class.duckdb::CompressionInfo" = type { i64 }
%"class.duckdb::DictionaryCompressionState" = type { %"struct.duckdb::CompressionState" }
%"struct.std::__detail::_Hash_node_base" = type { ptr }
%"struct.std::__detail::_Prime_rehash_policy" = type { float, i64 }
%"struct.duckdb::DictionaryCompressionCompressState" = type { %"class.duckdb::DictionaryCompressionState", ptr, ptr, %"class.duckdb::unique_ptr.56", %"class.duckdb::BufferHandle", %"struct.duckdb::StringDictionaryContainer", ptr, %"class.std::unordered_map", %"class.duckdb::vector", %"class.duckdb::vector", i8, i8, i32 }
%"class.duckdb::unique_ptr.56" = type { %"class.std::unique_ptr.57" }
%"class.std::unique_ptr.57" = type { %"struct.std::__uniq_ptr_data.58" }
%"struct.std::__uniq_ptr_data.58" = type { %"class.std::__uniq_ptr_impl.59" }
%"class.std::__uniq_ptr_impl.59" = type { %"class.std::tuple.60" }
%"class.std::tuple.60" = type { %"struct.std::_Tuple_impl.61" }
%"struct.std::_Tuple_impl.61" = type { %"struct.std::_Head_base.64" }
%"struct.std::_Head_base.64" = type { ptr }
%"class.std::unordered_map" = type { %"class.std::_Hashtable.65" }
%"class.std::_Hashtable.65" = type { ptr, i64, %"struct.std::__detail::_Hash_node_base", i64, %"struct.std::__detail::_Prime_rehash_policy", ptr }
%"class.duckdb::vector" = type { %"class.std::vector" }
%"class.std::vector" = type { %"struct.std::_Vector_base" }
%"struct.std::_Vector_base" = type { %"struct.std::_Vector_base<unsigned int, std::allocator<unsigned int>>::_Vector_impl" }
%"struct.std::_Vector_base<unsigned int, std::allocator<unsigned int>>::_Vector_impl" = type { %"struct.std::_Vector_base<unsigned int, std::allocator<unsigned int>>::_Vector_impl_data" }
%"struct.std::_Vector_base<unsigned int, std::allocator<unsigned int>>::_Vector_impl_data" = type { ptr, ptr, ptr }

; Function Attrs: mustprogress nounwind uwtable
define linkonce_odr noundef nonnull align 8 dereferenceable(8) ptr @_ZNSt10_Head_baseILm0EPN6duckdb13ColumnSegmentELb0EE7_M_headERS3_(ptr noundef nonnull align 8 dereferenceable(8) %0) #3 comdat align 2 {
  %2 = alloca ptr, align 8
  store ptr %0, ptr %2, align 8, !tbaa !364
  %3 = load ptr, ptr %2, align 8, !tbaa !364
  %4 = getelementptr inbounds nuw %"struct.std::_Head_base.64", ptr %3, i32 0, i32 0
  ret ptr %4
}

; Function Attrs: mustprogress nounwind uwtable
define linkonce_odr noundef nonnull align 8 dereferenceable(8) ptr @_ZNSt11_Tuple_implILm0EJPN6duckdb13ColumnSegmentESt14default_deleteIS1_EEE7_M_headERS5_(ptr noundef nonnull align 8 dereferenceable(8) %0) #3 comdat align 2 {
  %2 = alloca ptr, align 8
  store ptr %0, ptr %2, align 8, !tbaa !360
  %3 = load ptr, ptr %2, align 8, !tbaa !360
  %4 = call noundef nonnull align 8 dereferenceable(8) ptr @_ZNSt10_Head_baseILm0EPN6duckdb13ColumnSegmentELb0EE7_M_headERS3_(ptr noundef nonnull align 8 dereferenceable(8) %3) #19
  ret ptr %4
}

; Function Attrs: mustprogress nounwind uwtable
define linkonce_odr noundef nonnull align 8 dereferenceable(8) ptr @_ZSt12__get_helperILm0EPN6duckdb13ColumnSegmentEJSt14default_deleteIS1_EEERT0_RSt11_Tuple_implIXT_EJS5_DpT1_EE(ptr noundef nonnull align 8 dereferenceable(8) %0) #3 comdat {
  %2 = alloca ptr, align 8
  store ptr %0, ptr %2, align 8, !tbaa !360
  %3 = load ptr, ptr %2, align 8, !tbaa !360
  %4 = call noundef nonnull align 8 dereferenceable(8) ptr @_ZNSt11_Tuple_implILm0EJPN6duckdb13ColumnSegmentESt14default_deleteIS1_EEE7_M_headERS5_(ptr noundef nonnull align 8 dereferenceable(8) %3) #19
  ret ptr %4
}

; Function Attrs: mustprogress nounwind uwtable
define linkonce_odr void @_ZNSt11_Tuple_implILm1EJSt14default_deleteIN6duckdb13ColumnSegmentEEEEC2EOS4_(ptr noundef nonnull align 1 dereferenceable(1) %0, ptr noundef nonnull align 1 dereferenceable(1) %1) unnamed_addr #3 comdat align 2 {
  %3 = alloca ptr, align 8
  %4 = alloca ptr, align 8
  store ptr %0, ptr %3, align 8, !tbaa !362
  store ptr %1, ptr %4, align 8, !tbaa !362
  ret void
}

; Function Attrs: mustprogress nounwind uwtable
define linkonce_odr noundef nonnull align 8 dereferenceable(8) ptr @_ZSt3getILm0EJPN6duckdb13ColumnSegmentESt14default_deleteIS1_EEERNSt13tuple_elementIXT_ESt5tupleIJDpT0_EEE4typeERS9_(ptr noundef nonnull align 8 dereferenceable(8) %0) #3 comdat {
  %2 = alloca ptr, align 8
  store ptr %0, ptr %2, align 8, !tbaa !358
  %3 = load ptr, ptr %2, align 8, !tbaa !358
  %4 = call noundef nonnull align 8 dereferenceable(8) ptr @_ZSt12__get_helperILm0EPN6duckdb13ColumnSegmentEJSt14default_deleteIS1_EEERT0_RSt11_Tuple_implIXT_EJS5_DpT1_EE(ptr noundef nonnull align 8 dereferenceable(8) %3) #19
  ret ptr %4
}

; Function Attrs: mustprogress nounwind uwtable
define linkonce_odr void @_ZNSt11_Tuple_implILm0EJPN6duckdb13ColumnSegmentESt14default_deleteIS1_EEEC2EOS5_(ptr noundef nonnull align 8 dereferenceable(8) %0, ptr noundef nonnull align 8 dereferenceable(8) %1) unnamed_addr #3 comdat align 2 {
  %3 = alloca ptr, align 8
  %4 = alloca ptr, align 8
  store ptr %0, ptr %3, align 8, !tbaa !360
  store ptr %1, ptr %4, align 8, !tbaa !360
  %5 = load ptr, ptr %3, align 8
  %6 = load ptr, ptr %4, align 8, !tbaa !360
  call void @_ZNSt11_Tuple_implILm1EJSt14default_deleteIN6duckdb13ColumnSegmentEEEEC2EOS4_(ptr noundef nonnull align 1 dereferenceable(1) %5, ptr noundef nonnull align 1 dereferenceable(1) %6) #19
  %7 = load ptr, ptr %4, align 8, !tbaa !360
  call void @llvm.memcpy.p0.p0.i64(ptr align 8 %5, ptr align 8 %7, i64 8, i1 false), !tbaa.struct !411
  ret void
}

; Function Attrs: mustprogress nounwind uwtable
define linkonce_odr noundef nonnull align 8 dereferenceable(8) ptr @_ZNSt15__uniq_ptr_implIN6duckdb13ColumnSegmentESt14default_deleteIS1_EE6_M_ptrEv(ptr noundef nonnull align 8 dereferenceable(8) %0) #3 comdat align 2 {
  %2 = alloca ptr, align 8
  store ptr %0, ptr %2, align 8, !tbaa !356
  %3 = load ptr, ptr %2, align 8
  %4 = getelementptr inbounds nuw %"class.std::__uniq_ptr_impl.59", ptr %3, i32 0, i32 0
  %5 = call noundef nonnull align 8 dereferenceable(8) ptr @_ZSt3getILm0EJPN6duckdb13ColumnSegmentESt14default_deleteIS1_EEERNSt13tuple_elementIXT_ESt5tupleIJDpT0_EEE4typeERS9_(ptr noundef nonnull align 8 dereferenceable(8) %4) #19
  ret ptr %5
}

; Function Attrs: mustprogress nounwind uwtable
define linkonce_odr void @_ZNSt5tupleIJPN6duckdb13ColumnSegmentESt14default_deleteIS1_EEEC2EOS5_(ptr noundef nonnull align 8 dereferenceable(8) %0, ptr noundef nonnull align 8 dereferenceable(8) %1) unnamed_addr #3 comdat align 2 {
  %3 = alloca ptr, align 8
  %4 = alloca ptr, align 8
  store ptr %0, ptr %3, align 8, !tbaa !358
  store ptr %1, ptr %4, align 8, !tbaa !358
  %5 = load ptr, ptr %3, align 8
  %6 = load ptr, ptr %4, align 8, !tbaa !358
  call void @_ZNSt11_Tuple_implILm0EJPN6duckdb13ColumnSegmentESt14default_deleteIS1_EEEC2EOS5_(ptr noundef nonnull align 8 dereferenceable(8) %5, ptr noundef nonnull align 8 dereferenceable(8) %6) #19
  ret void
}

; Function Attrs: mustprogress nounwind uwtable
define linkonce_odr void @_ZNSt15__uniq_ptr_implIN6duckdb13ColumnSegmentESt14default_deleteIS1_EEC2EOS4_(ptr noundef nonnull align 8 dereferenceable(8) %0, ptr noundef nonnull align 8 dereferenceable(8) %1) unnamed_addr #3 comdat align 2 {
  %3 = alloca ptr, align 8
  %4 = alloca ptr, align 8
  store ptr %0, ptr %3, align 8, !tbaa !356
  store ptr %1, ptr %4, align 8, !tbaa !356
  %5 = load ptr, ptr %3, align 8
  %6 = getelementptr inbounds nuw %"class.std::__uniq_ptr_impl.59", ptr %5, i32 0, i32 0
  %7 = load ptr, ptr %4, align 8, !tbaa !356
  %8 = getelementptr inbounds nuw %"class.std::__uniq_ptr_impl.59", ptr %7, i32 0, i32 0
  call void @_ZNSt5tupleIJPN6duckdb13ColumnSegmentESt14default_deleteIS1_EEEC2EOS5_(ptr noundef nonnull align 8 dereferenceable(8) %6, ptr noundef nonnull align 8 dereferenceable(8) %8) #19
  %9 = load ptr, ptr %4, align 8, !tbaa !356
  %10 = call noundef nonnull align 8 dereferenceable(8) ptr @_ZNSt15__uniq_ptr_implIN6duckdb13ColumnSegmentESt14default_deleteIS1_EE6_M_ptrEv(ptr noundef nonnull align 8 dereferenceable(8) %9) #19
  store ptr null, ptr %10, align 8, !tbaa !8
  ret void
}

; Function Attrs: mustprogress nounwind uwtable
define linkonce_odr void @_ZNSt15__uniq_ptr_dataIN6duckdb13ColumnSegmentESt14default_deleteIS1_ELb1ELb1EEC2EOS4_(ptr noundef nonnull align 8 dereferenceable(8) %0, ptr noundef nonnull align 8 dereferenceable(8) %1) unnamed_addr #3 comdat align 2 {
  %3 = alloca ptr, align 8
  %4 = alloca ptr, align 8
  store ptr %0, ptr %3, align 8, !tbaa !354
  store ptr %1, ptr %4, align 8, !tbaa !354
  %5 = load ptr, ptr %3, align 8
  %6 = load ptr, ptr %4, align 8, !tbaa !354
  call void @_ZNSt15__uniq_ptr_implIN6duckdb13ColumnSegmentESt14default_deleteIS1_EEC2EOS4_(ptr noundef nonnull align 8 dereferenceable(8) %5, ptr noundef nonnull align 8 dereferenceable(8) %6) #19
  ret void
}

; Function Attrs: noinline noreturn nounwind uwtable
define linkonce_odr hidden void @__clang_call_terminate(ptr noundef %0) #12 comdat {
  %2 = call ptr @__cxa_begin_catch(ptr %0) #19
  call void @_ZSt9terminatev() #20
  unreachable
}

; Function Attrs: mustprogress nounwind uwtable
define linkonce_odr noundef i32 @_ZStanSt12memory_orderSt23__memory_order_modifier(i32 noundef %0, i32 noundef %1) #3 comdat {
  %3 = alloca i32, align 4
  %4 = alloca i32, align 4
  store i32 %0, ptr %3, align 4, !tbaa !235
  store i32 %1, ptr %4, align 4, !tbaa !494
  %5 = load i32, ptr %3, align 4, !tbaa !235
  %6 = load i32, ptr %4, align 4, !tbaa !494
  %7 = and i32 %5, %6
  ret i32 %7
}

; Function Attrs: mustprogress nounwind uwtable
define linkonce_odr void @_ZNSt10unique_ptrIN6duckdb13ColumnSegmentESt14default_deleteIS1_EEC2EOS4_(ptr noundef nonnull align 8 dereferenceable(8) %0, ptr noundef nonnull align 8 dereferenceable(8) %1) unnamed_addr #3 comdat align 2 {
  %3 = alloca ptr, align 8
  %4 = alloca ptr, align 8
  store ptr %0, ptr %3, align 8, !tbaa !209
  store ptr %1, ptr %4, align 8, !tbaa !209
  %5 = load ptr, ptr %3, align 8
  %6 = getelementptr inbounds nuw %"class.std::unique_ptr.57", ptr %5, i32 0, i32 0
  %7 = load ptr, ptr %4, align 8, !tbaa !209
  %8 = getelementptr inbounds nuw %"class.std::unique_ptr.57", ptr %7, i32 0, i32 0
  call void @_ZNSt15__uniq_ptr_dataIN6duckdb13ColumnSegmentESt14default_deleteIS1_ELb1ELb1EEC2EOS4_(ptr noundef nonnull align 8 dereferenceable(8) %6, ptr noundef nonnull align 8 dereferenceable(8) %8) #19
  ret void
}

; Function Attrs: alwaysinline mustprogress nounwind uwtable
define linkonce_odr noundef i64 @_ZNKSt13__atomic_baseImE4loadESt12memory_order(ptr noundef nonnull align 8 dereferenceable(8) %0, i32 noundef %1) #9 comdat align 2 personality ptr @__gxx_personality_v0 {
  %3 = alloca ptr, align 8
  %4 = alloca i32, align 4
  %5 = alloca i32, align 4
  %6 = alloca i64, align 8
  store ptr %0, ptr %3, align 8, !tbaa !233
  store i32 %1, ptr %4, align 4, !tbaa !235
  %7 = load ptr, ptr %3, align 8
  call void @llvm.lifetime.start.p0(i64 4, ptr %5) #19
  %8 = load i32, ptr %4, align 4, !tbaa !235
  %9 = invoke noundef i32 @_ZStanSt12memory_orderSt23__memory_order_modifier(i32 noundef %8, i32 noundef 65535)
          to label %10 unwind label %27

10:                                               ; preds = %2
  store i32 %9, ptr %5, align 4, !tbaa !235
  br label %11

11:                                               ; preds = %10
  br label %12

12:                                               ; preds = %11
  br label %13

13:                                               ; preds = %12
  br label %14

14:                                               ; preds = %13
  br label %15

15:                                               ; preds = %14
  br label %16

16:                                               ; preds = %15
  %17 = getelementptr inbounds nuw %"struct.std::__atomic_base", ptr %7, i32 0, i32 0
  %18 = load i32, ptr %4, align 4, !tbaa !235
  switch i32 %18, label %19 [
    i32 1, label %21
    i32 2, label %21
    i32 5, label %23
  ]

19:                                               ; preds = %16
  %20 = load atomic i64, ptr %17 monotonic, align 8
  store i64 %20, ptr %6, align 8
  br label %25

21:                                               ; preds = %16, %16
  %22 = load atomic i64, ptr %17 acquire, align 8
  store i64 %22, ptr %6, align 8
  br label %25

23:                                               ; preds = %16
  %24 = load atomic i64, ptr %17 seq_cst, align 8
  store i64 %24, ptr %6, align 8
  br label %25

25:                                               ; preds = %23, %21, %19
  %26 = load i64, ptr %6, align 8, !tbaa !3
  call void @llvm.lifetime.end.p0(i64 4, ptr %5) #19
  ret i64 %26

27:                                               ; preds = %2
  %28 = landingpad { ptr, i32 }
          catch ptr null
  %29 = extractvalue { ptr, i32 } %28, 0
  call void @__clang_call_terminate(ptr %29) #20
  unreachable
}

; Function Attrs: inlinehint mustprogress nounwind uwtable
define linkonce_odr void @_ZN6duckdb10unique_ptrINS_13ColumnSegmentESt14default_deleteIS1_ELb1EEC2EOS4_(ptr noundef nonnull align 8 dereferenceable(8) %0, ptr noundef nonnull align 8 dereferenceable(8) %1) unnamed_addr #6 comdat align 2 {
  %3 = alloca ptr, align 8
  %4 = alloca ptr, align 8
  store ptr %0, ptr %3, align 8, !tbaa !190
  store ptr %1, ptr %4, align 8, !tbaa !190
  %5 = load ptr, ptr %3, align 8
  %6 = load ptr, ptr %4, align 8, !tbaa !190
  call void @_ZNSt10unique_ptrIN6duckdb13ColumnSegmentESt14default_deleteIS1_EEC2EOS4_(ptr noundef nonnull align 8 dereferenceable(8) %5, ptr noundef nonnull align 8 dereferenceable(8) %6) #19
  ret void
}

; Function Attrs: mustprogress nounwind uwtable
define linkonce_odr noundef i64 @_ZNKSt13__atomic_baseImEcvmEv(ptr noundef nonnull align 8 dereferenceable(8) %0) #3 comdat align 2 {
  %2 = alloca ptr, align 8
  store ptr %0, ptr %2, align 8, !tbaa !233
  %3 = load ptr, ptr %2, align 8
  %4 = call noundef i64 @_ZNKSt13__atomic_baseImE4loadESt12memory_order(ptr noundef nonnull align 8 dereferenceable(8) %3, i32 noundef 5) #19
  ret i64 %4
}

; Function Attrs: mustprogress uwtable
define void @_ZN6duckdb34DictionaryCompressionCompressState5FlushEb(ptr noundef nonnull align 8 dereferenceable(192) %0, i1 noundef zeroext %1) unnamed_addr #0 align 2 personality ptr @__gxx_personality_v0 {
  %3 = alloca ptr, align 8
  %4 = alloca i8, align 1
  %5 = alloca i64, align 8
  %6 = alloca i64, align 8
  %7 = alloca ptr, align 8
  %8 = alloca %"class.duckdb::unique_ptr.56", align 8
  %9 = alloca %"class.duckdb::BufferHandle", align 8
  %10 = alloca ptr, align 8
  %11 = alloca i32, align 4
  store ptr %0, ptr %3, align 8, !tbaa !159
  %12 = zext i1 %1 to i8
  store i8 %12, ptr %4, align 1, !tbaa !98
  %13 = load ptr, ptr %3, align 8
  call void @llvm.lifetime.start.p0(i64 8, ptr %5) #19
  %14 = getelementptr inbounds nuw %"struct.duckdb::DictionaryCompressionCompressState", ptr %13, i32 0, i32 3
  %15 = call noundef ptr @_ZNK6duckdb10unique_ptrINS_13ColumnSegmentESt14default_deleteIS1_ELb1EEptEv(ptr noundef nonnull align 8 dereferenceable(8) %14)
  %16 = getelementptr inbounds nuw %"class.duckdb::SegmentBase", ptr %15, i32 0, i32 0
  %17 = load i64, ptr %16, align 8, !tbaa !237
  %18 = getelementptr inbounds nuw %"struct.duckdb::DictionaryCompressionCompressState", ptr %13, i32 0, i32 3
  %19 = call noundef ptr @_ZNK6duckdb10unique_ptrINS_13ColumnSegmentESt14default_deleteIS1_ELb1EEptEv(ptr noundef nonnull align 8 dereferenceable(8) %18)
  %20 = getelementptr inbounds nuw %"class.duckdb::SegmentBase", ptr %19, i32 0, i32 1
  %21 = call noundef i64 @_ZNKSt13__atomic_baseImEcvmEv(ptr noundef nonnull align 8 dereferenceable(8) %20) #19
  %22 = add i64 %17, %21
  store i64 %22, ptr %5, align 8, !tbaa !3
  call void @llvm.lifetime.start.p0(i64 8, ptr %6) #19
  %23 = call noundef i64 @_ZN6duckdb34DictionaryCompressionCompressState8FinalizeEv(ptr noundef nonnull align 8 dereferenceable(192) %13)
  store i64 %23, ptr %6, align 8, !tbaa !3
  call void @llvm.lifetime.start.p0(i64 8, ptr %7) #19
  %24 = getelementptr inbounds nuw %"struct.duckdb::DictionaryCompressionCompressState", ptr %13, i32 0, i32 1
  %25 = load ptr, ptr %24, align 8, !tbaa !163
  %26 = call noundef nonnull align 8 dereferenceable(144) ptr @_ZN6duckdb24ColumnDataCheckpointData18GetCheckpointStateEv(ptr noundef nonnull align 8 dereferenceable(40) %25)
  store ptr %26, ptr %7, align 8, !tbaa !238
  %27 = load ptr, ptr %7, align 8, !tbaa !238
  %28 = getelementptr inbounds nuw %"struct.duckdb::DictionaryCompressionCompressState", ptr %13, i32 0, i32 3
  call void @_ZN6duckdb10unique_ptrINS_13ColumnSegmentESt14default_deleteIS1_ELb1EEC2EOS4_(ptr noundef nonnull align 8 dereferenceable(8) %8, ptr noundef nonnull align 8 dereferenceable(8) %28) #19
  %29 = getelementptr inbounds nuw %"struct.duckdb::DictionaryCompressionCompressState", ptr %13, i32 0, i32 4
  call void @_ZN6duckdb12BufferHandleC1EOS0_(ptr noundef nonnull align 8 dereferenceable(24) %9, ptr noundef nonnull align 8 dereferenceable(24) %29) #19
  %30 = load i64, ptr %6, align 8, !tbaa !3
  %31 = load ptr, ptr %27, align 8, !tbaa !74
  %32 = getelementptr inbounds ptr, ptr %31, i64 4
  %33 = load ptr, ptr %32, align 8
  invoke void %33(ptr noundef nonnull align 8 dereferenceable(144) %27, ptr noundef %8, ptr noundef %9, i64 noundef %30)
          to label %34 unwind label %39

34:                                               ; preds = %2
  call void @_ZN6duckdb12BufferHandleD1Ev(ptr noundef nonnull align 8 dereferenceable(24) %9) #19
  call void @_ZNSt10unique_ptrIN6duckdb13ColumnSegmentESt14default_deleteIS1_EED2Ev(ptr noundef nonnull align 8 dereferenceable(8) %8) #19
  %35 = load i8, ptr %4, align 1, !tbaa !98, !range !99, !noundef !100
  %36 = trunc i8 %35 to i1
  br i1 %36, label %43, label %37

37:                                               ; preds = %34
  %38 = load i64, ptr %5, align 8, !tbaa !3
  call void @_ZN6duckdb34DictionaryCompressionCompressState18CreateEmptySegmentEm(ptr noundef nonnull align 8 dereferenceable(192) %13, i64 noundef %38)
  br label %43

39:                                               ; preds = %2
  %40 = landingpad { ptr, i32 }
          cleanup
  %41 = extractvalue { ptr, i32 } %40, 0
  store ptr %41, ptr %10, align 8
  %42 = extractvalue { ptr, i32 } %40, 1
  store i32 %42, ptr %11, align 4
  call void @_ZN6duckdb12BufferHandleD1Ev(ptr noundef nonnull align 8 dereferenceable(24) %9) #19
  call void @_ZNSt10unique_ptrIN6duckdb13ColumnSegmentESt14default_deleteIS1_EED2Ev(ptr noundef nonnull align 8 dereferenceable(8) %8) #19
  call void @llvm.lifetime.end.p0(i64 8, ptr %7) #19
  call void @llvm.lifetime.end.p0(i64 8, ptr %6) #19
  call void @llvm.lifetime.end.p0(i64 8, ptr %5) #19
  br label %44

43:                                               ; preds = %37, %34
  call void @llvm.lifetime.end.p0(i64 8, ptr %7) #19
  call void @llvm.lifetime.end.p0(i64 8, ptr %6) #19
  call void @llvm.lifetime.end.p0(i64 8, ptr %5) #19
  ret void

44:                                               ; preds = %39
  %45 = load ptr, ptr %10, align 8
  %46 = load i32, ptr %11, align 4
  %47 = insertvalue { ptr, i32 } poison, ptr %45, 0
  %48 = insertvalue { ptr, i32 } %47, i32 %46, 1
  resume { ptr, i32 } %48
}