; Function Attrs: mustprogress uwtable
define void @_ZN6duckdb34DictionaryCompressionCompressState5FlushEb(ptr noundef nonnull align 8 dereferenceable(192) %0, i1 noundef zeroext %1) unnamed_addr #0 align 2 personality ptr @__gxx_personality_v0 {
  %3 = alloca %"class.duckdb::unique_ptr.56", align 8
  %4 = alloca %"class.duckdb::BufferHandle", align 8
  %5 = getelementptr inbounds nuw i8, ptr %0, i64 32
  %6 = tail call noundef ptr @_ZNK6duckdb10unique_ptrINS_13ColumnSegmentESt14default_deleteIS1_ELb1EEptEv(ptr noundef nonnull align 8 dereferenceable(8) %5)
  %7 = load i64, ptr %6, align 8, !tbaa !186
  %8 = tail call noundef ptr @_ZNK6duckdb10unique_ptrINS_13ColumnSegmentESt14default_deleteIS1_ELb1EEptEv(ptr noundef nonnull align 8 dereferenceable(8) %5)
  %9 = getelementptr inbounds nuw i8, ptr %8, i64 8
  %10 = load atomic i64, ptr %9 seq_cst, align 8
  %11 = add i64 %10, %7
  %12 = tail call noundef i64 @_ZN6duckdb34DictionaryCompressionCompressState8FinalizeEv(ptr noundef nonnull align 8 dereferenceable(192) %0)
  %13 = getelementptr inbounds nuw i8, ptr %0, i64 16
  %14 = load ptr, ptr %13, align 8, !tbaa !148
  %15 = tail call noundef nonnull align 8 dereferenceable(144) ptr @_ZN6duckdb24ColumnDataCheckpointData18GetCheckpointStateEv(ptr noundef nonnull align 8 dereferenceable(40) %14)
  %16 = load i64, ptr %5, align 8, !tbaa !171
  store i64 %16, ptr %3, align 8, !tbaa !171
  store ptr null, ptr %5, align 8, !tbaa !171
  %17 = getelementptr inbounds nuw i8, ptr %0, i64 40
  call void @_ZN6duckdb12BufferHandleC1EOS0_(ptr noundef nonnull align 8 dereferenceable(24) %4, ptr noundef nonnull align 8 dereferenceable(24) %17) #28
  %18 = load ptr, ptr %15, align 8, !tbaa !60
  %19 = getelementptr inbounds nuw i8, ptr %18, i64 32
  %20 = load ptr, ptr %19, align 8
  invoke void %20(ptr noundef nonnull align 8 dereferenceable(144) %15, ptr noundef nonnull %3, ptr noundef nonnull %4, i64 noundef %12)
          to label %21 unwind label %24

21:                                               ; preds = %2
  call void @_ZN6duckdb12BufferHandleD1Ev(ptr noundef nonnull align 8 dereferenceable(24) %4) #28
  %22 = load ptr, ptr %3, align 8, !tbaa !171
  %.not.i = icmp eq ptr %22, null
  br i1 %.not.i, label %_ZNSt10unique_ptrIN6duckdb13ColumnSegmentESt14default_deleteIS1_EED2Ev.exit, label %_ZNKSt14default_deleteIN6duckdb13ColumnSegmentEEclEPS1_.exit.i

_ZNKSt14default_deleteIN6duckdb13ColumnSegmentEEclEPS1_.exit.i: ; preds = %21
  call void @_ZN6duckdb13ColumnSegmentD1Ev(ptr noundef nonnull align 8 dereferenceable(224) %22) #28
  call void @_ZdlPv(ptr noundef nonnull %22) #30
  br label %_ZNSt10unique_ptrIN6duckdb13ColumnSegmentESt14default_deleteIS1_EED2Ev.exit

_ZNSt10unique_ptrIN6duckdb13ColumnSegmentESt14default_deleteIS1_EED2Ev.exit: ; preds = %21, %_ZNKSt14default_deleteIN6duckdb13ColumnSegmentEEclEPS1_.exit.i
  store ptr null, ptr %3, align 8, !tbaa !171
  br i1 %1, label %26, label %23

23:                                               ; preds = %_ZNSt10unique_ptrIN6duckdb13ColumnSegmentESt14default_deleteIS1_EED2Ev.exit
  call void @_ZN6duckdb34DictionaryCompressionCompressState18CreateEmptySegmentEm(ptr noundef nonnull align 8 dereferenceable(192) %0, i64 noundef %11)
  br label %26

24:                                               ; preds = %2
  %25 = landingpad { ptr, i32 }
          cleanup
  call void @_ZN6duckdb12BufferHandleD1Ev(ptr noundef nonnull align 8 dereferenceable(24) %4) #28
  call void @_ZNSt10unique_ptrIN6duckdb13ColumnSegmentESt14default_deleteIS1_EED2Ev(ptr noundef nonnull align 8 dereferenceable(8) %3) #28
  resume { ptr, i32 } %25

26:                                               ; preds = %23, %_ZNSt10unique_ptrIN6duckdb13ColumnSegmentESt14default_deleteIS1_EED2Ev.exit
  ret void
}